target datalayout = "e-m:e-p270:32:32-p271:32:32-p272:64:64-i64:64-i128:128-f80:128-n8:16:32:64-S128"
target triple = "x86_64-pc-linux-gnu"

; Function Attrs: nounwind sspstrong uwtable
define internal i32 @is_code_ctype(i32 noundef %0, i32 noundef %1, ptr noundef %2) #0 {
  %4 = alloca i32, align 4
  %5 = alloca i32, align 4
  %6 = alloca i32, align 4
  %7 = alloca ptr, align 8
  store i32 %0, ptr %5, align 4, !tbaa !13
  store i32 %1, ptr %6, align 4, !tbaa !13
  store ptr %2, ptr %7, align 8, !tbaa !17
  %8 = load i32, ptr %5, align 4, !tbaa !13
  %9 = icmp ult i32 %8, 256
  br i1 %9, label %10, label %21

10:                                               ; preds = %3
  %11 = load i32, ptr %5, align 4, !tbaa !13
  %12 = zext i32 %11 to i64
  %13 = getelementptr inbounds nuw [256 x i16], ptr @EncISO_8859_9_CtypeTable, i64 0, i64 %12
  %14 = load i16, ptr %13, align 2, !tbaa !21
  %15 = zext i16 %14 to i32
  %16 = load i32, ptr %6, align 4, !tbaa !13
  %17 = shl i32 1, %16
  %18 = and i32 %15, %17
  %19 = icmp ne i32 %18, 0
  %20 = zext i1 %19 to i32
  store i32 %20, ptr %4, align 4
  br label %22

21:                                               ; preds = %3
  store i32 0, ptr %4, align 4
  br label %22

22:                                               ; preds = %21, %10
  %23 = load i32, ptr %4, align 4
  ret i32 %23
}